target datalayout = "e-m:e-p270:32:32-p271:32:32-p272:64:64-i64:64-i128:128-f80:128-n8:16:32:64-S128"
target triple = "x86_64-pc-linux-gnu"

%struct.AVFilterContext = type { ptr, ptr, ptr, ptr, ptr, i32, ptr, ptr, i32, ptr, ptr, i32, i32, ptr, ptr, ptr, ptr, i32, ptr, i32, i32 }
%struct.ShowSpectrumContext = type { ptr, i32, i32, ptr, %struct.AVRational, %struct.AVRational, ptr, ptr, i32, i32, i32, i32, i32, i32, i32, i32, i32, float, float, i32, i32, i32, i32, ptr, ptr, ptr, ptr, i32, ptr, ptr, ptr, ptr, ptr, ptr, i32, i32, i32, double, float, float, i32, ptr, ptr, i64, i64, i64, i32, i32, i32, i32, i32, float, float, float, float, i64, ptr, i32, float, ptr, i32, i32 }
%struct.AVRational = type { i32, i32 }
%struct.AVFilterFormatsConfig = type { ptr, ptr, ptr, ptr, ptr }
%struct.AVFrame = type { [8 x ptr], [8 x i32], ptr, i32, i32, i32, i32, i32, %struct.AVRational, i64, i64, %struct.AVRational, i32, ptr, i32, i32, [8 x ptr], ptr, i32, ptr, i32, i32, i32, i32, i32, i32, i32, i64, ptr, i32, ptr, ptr, i64, i64, i64, i64, ptr, %struct.AVChannelLayout, i64 }
%struct.AVChannelLayout = type { i32, i32, %union.anon.1, ptr }
%union.anon.1 = type { i64 }
%struct.AVFilterLink = type { ptr, ptr, ptr, ptr, i32, i32, i32, i32, %struct.AVRational, i32, i32, i32, %struct.AVChannelLayout, %struct.AVRational, ptr, i32, %struct.AVFilterFormatsConfig, %struct.AVFilterFormatsConfig }

; Function Attrs: nounwind uwtable
define internal i32 @showspectrumpic_filter_frame(ptr noundef %0, ptr noundef %1) #1 {
  %3 = alloca i32, align 4
  %4 = alloca ptr, align 8
  %5 = alloca ptr, align 8
  %6 = alloca ptr, align 8
  %7 = alloca ptr, align 8
  %8 = alloca ptr, align 8
  %9 = alloca i32, align 4
  store ptr %0, ptr %4, align 8, !tbaa !64
  store ptr %1, ptr %5, align 8, !tbaa !69
  call void @llvm.lifetime.start.p0(i64 8, ptr %6) #13
  %10 = load ptr, ptr %4, align 8, !tbaa !64
  %11 = getelementptr inbounds nuw %struct.AVFilterLink, ptr %10, i32 0, i32 2
  %12 = load ptr, ptr %11, align 8, !tbaa !243
  store ptr %12, ptr %6, align 8, !tbaa !4
  call void @llvm.lifetime.start.p0(i64 8, ptr %7) #13
  %13 = load ptr, ptr %6, align 8, !tbaa !4
  %14 = getelementptr inbounds nuw %struct.AVFilterContext, ptr %13, i32 0, i32 9
  %15 = load ptr, ptr %14, align 8, !tbaa !9
  store ptr %15, ptr %7, align 8, !tbaa !22
  call void @llvm.lifetime.start.p0(i64 8, ptr %8) #13
  %16 = load ptr, ptr %7, align 8, !tbaa !22
  %17 = getelementptr inbounds nuw %struct.ShowSpectrumContext, ptr %16, i32 0, i32 60
  %18 = load i32, ptr %17, align 8, !tbaa !54
  %19 = zext i32 %18 to i64
  %20 = add i64 %19, 1
  %21 = load ptr, ptr %7, align 8, !tbaa !22
  %22 = getelementptr inbounds nuw %struct.ShowSpectrumContext, ptr %21, i32 0, i32 61
  %23 = load i32, ptr %22, align 4, !tbaa !265
  %24 = zext i32 %23 to i64
  %25 = udiv i64 %24, 8
  %26 = icmp ugt i64 %20, %25
  br i1 %26, label %27, label %46

27:                                               ; preds = %2
  %28 = load ptr, ptr %7, align 8, !tbaa !22
  %29 = getelementptr inbounds nuw %struct.ShowSpectrumContext, ptr %28, i32 0, i32 59
  %30 = load ptr, ptr %29, align 8, !tbaa !55
  %31 = load ptr, ptr %7, align 8, !tbaa !22
  %32 = getelementptr inbounds nuw %struct.ShowSpectrumContext, ptr %31, i32 0, i32 61
  %33 = load ptr, ptr %7, align 8, !tbaa !22
  %34 = getelementptr inbounds nuw %struct.ShowSpectrumContext, ptr %33, i32 0, i32 61
  %35 = load i32, ptr %34, align 4, !tbaa !265
  %36 = mul i32 %35, 2
  %37 = zext i32 %36 to i64
  %38 = call ptr @av_fast_realloc(ptr noundef %30, ptr noundef %32, i64 noundef %37)
  store ptr %38, ptr %8, align 8, !tbaa !145
  %39 = load ptr, ptr %8, align 8, !tbaa !145
  %40 = icmp ne ptr %39, null
  br i1 %40, label %42, label %41

41:                                               ; preds = %27
  store i32 -12, ptr %3, align 4
  store i32 1, ptr %9, align 4
  br label %68

42:                                               ; preds = %27
  %43 = load ptr, ptr %8, align 8, !tbaa !145
  %44 = load ptr, ptr %7, align 8, !tbaa !22
  %45 = getelementptr inbounds nuw %struct.ShowSpectrumContext, ptr %44, i32 0, i32 59
  store ptr %43, ptr %45, align 8, !tbaa !55
  br label %46

46:                                               ; preds = %42, %2
  %47 = load ptr, ptr %5, align 8, !tbaa !69
  %48 = load ptr, ptr %7, align 8, !tbaa !22
  %49 = getelementptr inbounds nuw %struct.ShowSpectrumContext, ptr %48, i32 0, i32 59
  %50 = load ptr, ptr %49, align 8, !tbaa !55
  %51 = load ptr, ptr %7, align 8, !tbaa !22
  %52 = getelementptr inbounds nuw %struct.ShowSpectrumContext, ptr %51, i32 0, i32 60
  %53 = load i32, ptr %52, align 8, !tbaa !54
  %54 = zext i32 %53 to i64
  %55 = getelementptr inbounds nuw ptr, ptr %50, i64 %54
  store ptr %47, ptr %55, align 8, !tbaa !69
  %56 = load ptr, ptr %5, align 8, !tbaa !69
  %57 = getelementptr inbounds nuw %struct.AVFrame, ptr %56, i32 0, i32 5
  %58 = load i32, ptr %57, align 8, !tbaa !220
  %59 = sext i32 %58 to i64
  %60 = load ptr, ptr %7, align 8, !tbaa !22
  %61 = getelementptr inbounds nuw %struct.ShowSpectrumContext, ptr %60, i32 0, i32 55
  %62 = load i64, ptr %61, align 8, !tbaa !266
  %63 = add i64 %62, %59
  store i64 %63, ptr %61, align 8, !tbaa !266
  %64 = load ptr, ptr %7, align 8, !tbaa !22
  %65 = getelementptr inbounds nuw %struct.ShowSpectrumContext, ptr %64, i32 0, i32 60
  %66 = load i32, ptr %65, align 8, !tbaa !54
  %67 = add i32 %66, 1
  store i32 %67, ptr %65, align 8, !tbaa !54
  store i32 0, ptr %3, align 4
  store i32 1, ptr %9, align 4
  br label %68

68:                                               ; preds = %46, %41
  call void @llvm.lifetime.end.p0(i64 8, ptr %8) #13
  call void @llvm.lifetime.end.p0(i64 8, ptr %7) #13
  call void @llvm.lifetime.end.p0(i64 8, ptr %6) #13
  %69 = load i32, ptr %3, align 4
  ret i32 %69
}