; Function Attrs: nounwind uwtable
define internal range(i32 -12, 1) i32 @showspectrumpic_filter_frame(ptr noundef readonly captures(none) %0, ptr noundef %1) #1 {
  %3 = getelementptr inbounds nuw i8, ptr %0, i64 16
  %4 = load ptr, ptr %3, align 8, !tbaa !227
  %5 = getelementptr inbounds nuw i8, ptr %4, i64 72
  %6 = load ptr, ptr %5, align 8, !tbaa !4
  %7 = getelementptr inbounds nuw i8, ptr %6, i64 360
  %8 = load i32, ptr %7, align 8, !tbaa !49
  %9 = getelementptr inbounds nuw i8, ptr %6, i64 364
  %10 = load i32, ptr %9, align 4, !tbaa !249
  %11 = lshr i32 %10, 3
  %.not = icmp ult i32 %8, %11
  %.phi.trans.insert = getelementptr inbounds nuw i8, ptr %6, i64 352
  %.pre = load ptr, ptr %.phi.trans.insert, align 8, !tbaa !50
  br i1 %.not, label %._crit_edge, label %12

12:                                               ; preds = %2
  %13 = shl i32 %10, 1
  %14 = zext i32 %13 to i64
  %15 = tail call ptr @av_fast_realloc(ptr noundef %.pre, ptr noundef nonnull %9, i64 noundef %14) #14
  %.not17 = icmp eq ptr %15, null
  br i1 %.not17, label %28, label %16

16:                                               ; preds = %12
  store ptr %15, ptr %.phi.trans.insert, align 8, !tbaa !50
  %.pre18 = load i32, ptr %7, align 8, !tbaa !49
  br label %._crit_edge

._crit_edge:                                      ; preds = %2, %16
  %17 = phi i32 [ %.pre18, %16 ], [ %8, %2 ]
  %18 = phi ptr [ %15, %16 ], [ %.pre, %2 ]
  %19 = zext i32 %17 to i64
  %20 = getelementptr inbounds nuw ptr, ptr %18, i64 %19
  store ptr %1, ptr %20, align 8, !tbaa !60
  %21 = getelementptr inbounds nuw i8, ptr %1, i64 112
  %22 = load i32, ptr %21, align 8, !tbaa !205
  %23 = sext i32 %22 to i64
  %24 = getelementptr inbounds nuw i8, ptr %6, i64 328
  %25 = load i64, ptr %24, align 8, !tbaa !250
  %26 = add i64 %25, %23
  store i64 %26, ptr %24, align 8, !tbaa !250
  %27 = add i32 %17, 1
  store i32 %27, ptr %7, align 8, !tbaa !49
  br label %28

28:                                               ; preds = %12, %._crit_edge
  %.0 = phi i32 [ 0, %._crit_edge ], [ -12, %12 ]
  ret i32 %.0
}